; ModuleID = '10/1163.c'
source_filename = "10/1163.c"
target datalayout = "e-m:e-p270:32:32-p271:32:32-p272:64:64-i64:64-f80:128-n8:16:32:64-S128"
target triple = "x86_64-pc-linux-gnu"

@d = dso_local global i32 0, align 4
@k = common dso_local global i32 0, align 4
@m = common dso_local global i32 0, align 4
@.str = private unnamed_addr constant [3 x i8] c"%d\00", align 1

; Function Attrs: noinline nounwind uwtable
define dso_local void @f(i32 %0, i32* %1, i32* %2) #0 {
  %4 = alloca i32, align 4
  %5 = alloca i32*, align 8
  %6 = alloca i32*, align 8
  store i32 %0, i32* %4, align 4
  store i32* %1, i32** %5, align 8
  store i32* %2, i32** %6, align 8
  %7 = load i32, i32* %4, align 4
  %8 = icmp eq i32 %7, 0
  br i1 %8, label %9, label %14

9:                                                ; preds = %3
  %10 = load i32*, i32** %5, align 8
  %11 = load i32, i32* %4, align 4
  %12 = sext i32 %11 to i64
  %13 = getelementptr inbounds i32, i32* %10, i64 %12
  store i32 0, i32* %13, align 4
  br label %26

14:                                               ; preds = %3
  %15 = load i32*, i32** %5, align 8
  %16 = load i32, i32* %4, align 4
  %17 = sub nsw i32 %16, 1
  %18 = sext i32 %17 to i64
  %19 = getelementptr inbounds i32, i32* %15, i64 %18
  %20 = load i32, i32* %19, align 4
  %21 = add nsw i32 %20, 1
  %22 = load i32*, i32** %5, align 8
  %23 = load i32, i32* %4, align 4
  %24 = sext i32 %23 to i64
  %25 = getelementptr inbounds i32, i32* %22, i64 %24
  store i32 %21, i32* %25, align 4
  br label %26

26:                                               ; preds = %14, %9
  br label %27

27:                                               ; preds = %112, %26
  %28 = load i32*, i32** %5, align 8
  %29 = load i32, i32* %4, align 4
  %30 = sext i32 %29 to i64
  %31 = getelementptr inbounds i32, i32* %28, i64 %30
  %32 = load i32, i32* %31, align 4
  %33 = load i32, i32* @k, align 4
  %34 = sub nsw i32 %33, 1
  %35 = icmp eq i32 %32, %34
  br i1 %35, label %36, label %77

36:                                               ; preds = %27
  %37 = load i32, i32* %4, align 4
  %38 = icmp eq i32 %37, 0
  br i1 %38, label %39, label %40

39:                                               ; preds = %36
  store i32 1, i32* @m, align 4
  br label %67

40:                                               ; preds = %36
  %41 = load i32*, i32** %6, align 8
  %42 = load i32*, i32** %5, align 8
  %43 = load i32, i32* %4, align 4
  %44 = sext i32 %43 to i64
  %45 = getelementptr inbounds i32, i32* %42, i64 %44
  %46 = load i32, i32* %45, align 4
  %47 = sext i32 %46 to i64
  %48 = getelementptr inbounds i32, i32* %41, i64 %47
  %49 = load i32, i32* %48, align 4
  %50 = load i32*, i32** %6, align 8
  %51 = load i32*, i32** %5, align 8
  %52 = load i32, i32* %4, align 4
  %53 = sub nsw i32 %52, 1
  %54 = sext i32 %53 to i64
  %55 = getelementptr inbounds i32, i32* %51, i64 %54
  %56 = load i32, i32* %55, align 4
  %57 = sext i32 %56 to i64
  %58 = getelementptr inbounds i32, i32* %50, i64 %57
  %59 = load i32, i32* %58, align 4
  %60 = icmp sgt i32 %49, %59
  br i1 %60, label %61, label %63

61:                                               ; preds = %40
  %62 = load i32, i32* %4, align 4
  store i32 %62, i32* @m, align 4
  br label %66

63:                                               ; preds = %40
  %64 = load i32, i32* %4, align 4
  %65 = add nsw i32 %64, 1
  store i32 %65, i32* @m, align 4
  br label %66

66:                                               ; preds = %63, %61
  br label %67

67:                                               ; preds = %66, %39
  %68 = load i32, i32* @d, align 4
  %69 = load i32, i32* @m, align 4
  %70 = icmp sgt i32 %68, %69
  br i1 %70, label %71, label %73

71:                                               ; preds = %67
  %72 = load i32, i32* @d, align 4
  br label %75

73:                                               ; preds = %67
  %74 = load i32, i32* @m, align 4
  br label %75

75:                                               ; preds = %73, %71
  %76 = phi i32 [ %72, %71 ], [ %74, %73 ]
  store i32 %76, i32* @d, align 4
  br label %119

77:                                               ; preds = %27
  %78 = load i32, i32* %4, align 4
  %79 = icmp ne i32 %78, 0
  br i1 %79, label %80, label %108

80:                                               ; preds = %77
  %81 = load i32*, i32** %6, align 8
  %82 = load i32*, i32** %5, align 8
  %83 = load i32, i32* %4, align 4
  %84 = sext i32 %83 to i64
  %85 = getelementptr inbounds i32, i32* %82, i64 %84
  %86 = load i32, i32* %85, align 4
  %87 = sext i32 %86 to i64
  %88 = getelementptr inbounds i32, i32* %81, i64 %87
  %89 = load i32, i32* %88, align 4
  %90 = load i32*, i32** %6, align 8
  %91 = load i32*, i32** %5, align 8
  %92 = load i32, i32* %4, align 4
  %93 = sub nsw i32 %92, 1
  %94 = sext i32 %93 to i64
  %95 = getelementptr inbounds i32, i32* %91, i64 %94
  %96 = load i32, i32* %95, align 4
  %97 = sext i32 %96 to i64
  %98 = getelementptr inbounds i32, i32* %90, i64 %97
  %99 = load i32, i32* %98, align 4
  %100 = icmp sgt i32 %89, %99
  br i1 %100, label %101, label %102

101:                                              ; preds = %80
  br label %112

102:                                              ; preds = %80
  %103 = load i32, i32* %4, align 4
  %104 = add nsw i32 %103, 1
  %105 = load i32*, i32** %5, align 8
  %106 = load i32*, i32** %6, align 8
  call void @f(i32 %104, i32* %105, i32* %106)
  br label %107

107:                                              ; preds = %102
  br label %111

108:                                              ; preds = %77
  %109 = load i32*, i32** %5, align 8
  %110 = load i32*, i32** %6, align 8
  call void @f(i32 1, i32* %109, i32* %110)
  br label %111

111:                                              ; preds = %108, %107
  br label %112

112:                                              ; preds = %111, %101
  %113 = load i32*, i32** %5, align 8
  %114 = load i32, i32* %4, align 4
  %115 = sext i32 %114 to i64
  %116 = getelementptr inbounds i32, i32* %113, i64 %115
  %117 = load i32, i32* %116, align 4
  %118 = add nsw i32 %117, 1
  store i32 %118, i32* %116, align 4
  br label %27

119:                                              ; preds = %75
  ret void
}

; Function Attrs: noinline nounwind uwtable
define dso_local i32 @main() #0 {
  %1 = alloca i32, align 4
  %2 = alloca i32, align 4
  %3 = alloca [25 x i32], align 16
  %4 = alloca [25 x i32], align 16
  store i32 0, i32* %1, align 4
  %5 = call i32 (i8*, ...) @__isoc99_scanf(i8* getelementptr inbounds ([3 x i8], [3 x i8]* @.str, i64 0, i64 0), i32* @k)
  store i32 0, i32* %2, align 4
  br label %6

6:                                                ; preds = %15, %0
  %7 = load i32, i32* %2, align 4
  %8 = load i32, i32* @k, align 4
  %9 = icmp slt i32 %7, %8
  br i1 %9, label %10, label %18

10:                                               ; preds = %6
  %11 = load i32, i32* %2, align 4
  %12 = sext i32 %11 to i64
  %13 = getelementptr inbounds [25 x i32], [25 x i32]* %3, i64 0, i64 %12
  %14 = call i32 (i8*, ...) @__isoc99_scanf(i8* getelementptr inbounds ([3 x i8], [3 x i8]* @.str, i64 0, i64 0), i32* %13)
  br label %15

15:                                               ; preds = %10
  %16 = load i32, i32* %2, align 4
  %17 = add nsw i32 %16, 1
  store i32 %17, i32* %2, align 4
  br label %6

18:                                               ; preds = %6
  %19 = getelementptr inbounds [25 x i32], [25 x i32]* %4, i64 0, i64 0
  %20 = getelementptr inbounds [25 x i32], [25 x i32]* %3, i64 0, i64 0
  call void @f(i32 0, i32* %19, i32* %20)
  %21 = load i32, i32* @d, align 4
  %22 = call i32 (i8*, ...) @printf(i8* getelementptr inbounds ([3 x i8], [3 x i8]* @.str, i64 0, i64 0), i32 %21)
  ret i32 0
}

declare dso_local i32 @__isoc99_scanf(i8*, ...) #1

declare dso_local i32 @printf(i8*, ...) #1


!llvm.module.flags = !{!0}
!llvm.ident = !{!1}

!0 = !{i32 1, !"wchar_size", i32 4}
!1 = !{!"clang version 10.0.0-4ubuntu1 "}
